target datalayout = "e-m:e-p270:32:32-p271:32:32-p272:64:64-i64:64-i128:128-f80:128-n8:16:32:64-S128"
target triple = "x86_64-pc-linux-gnu"

%"class.pybind11::object" = type { %"class.pybind11::handle" }
%"class.pybind11::handle" = type { ptr }
%"struct.pybind11::detail::void_type" = type { i8 }
%"class.pybind11::detail::argument_loader.904" = type { %"class.std::tuple.905" }
%"class.std::tuple.905" = type { %"struct.std::_Tuple_impl.906" }
%"struct.std::_Tuple_impl.906" = type { %"struct.std::_Head_base.907" }
%"struct.std::_Head_base.907" = type { %"struct.pybind11::detail::type_caster.908" }
%"struct.pybind11::detail::type_caster.908" = type { double }
%"class.pybind11::int_" = type { %"class.pybind11::object" }
%"class.pybind11::float_" = type { %"class.pybind11::object" }

@.str.207 = private unnamed_addr constant [33 x i8] c"Could not allocate float object!\00", align 1

; Function Attrs: mustprogress nounwind uwtable
define linkonce_odr hidden noundef nonnull align 8 dereferenceable(8) ptr @_ZNSt10_Head_baseILm0EN8pybind116detail11type_casterIdvEELb0EE7_M_headERS4_(ptr noundef nonnull align 8 dereferenceable(8) %0) #5 comdat align 2 {
  %2 = alloca ptr, align 8
  store ptr %0, ptr %2, align 8, !tbaa !2558
  %3 = load ptr, ptr %2, align 8, !tbaa !2558
  %4 = getelementptr inbounds nuw %"struct.std::_Head_base.907", ptr %3, i32 0, i32 0
  ret ptr %4
}

; Function Attrs: mustprogress uwtable
define linkonce_odr hidden void @_ZN8pybind114castINS_4int_EEENSt9enable_ifIXsr6detail11is_pyobjectIT_EE5valueES3_E4typeEONS_6objectE(ptr dead_on_unwind noalias writable sret(%"class.pybind11::int_") align 8 %0, ptr noundef nonnull align 8 dereferenceable(8) %1) #4 comdat {
  %3 = alloca ptr, align 8
  %4 = alloca ptr, align 8
  store ptr %0, ptr %3, align 8
  store ptr %1, ptr %4, align 8, !tbaa !156
  %5 = load ptr, ptr %4, align 8, !tbaa !156
  call void @_ZN8pybind114int_C2EONS_6objectE(ptr noundef nonnull align 8 dereferenceable(8) %0, ptr noundef nonnull align 8 dereferenceable(8) %5)
  ret void
}

; Function Attrs: mustprogress nounwind uwtable
define linkonce_odr hidden void @_ZN8pybind116objectC2ENS_6handleENS0_8stolen_tE(ptr noundef nonnull align 8 dereferenceable(8) %0, ptr %1) unnamed_addr #5 comdat align 2 {
  %3 = alloca %"class.pybind11::handle", align 8
  %4 = alloca ptr, align 8
  %5 = getelementptr inbounds nuw %"class.pybind11::handle", ptr %3, i32 0, i32 0
  store ptr %1, ptr %5, align 8
  store ptr %0, ptr %4, align 8, !tbaa !156
  %6 = load ptr, ptr %4, align 8
  call void @llvm.memcpy.p0.p0.i64(ptr align 8 %6, ptr align 8 %3, i64 8, i1 false)
  ret void
}

; Function Attrs: mustprogress nounwind uwtable
define linkonce_odr hidden void @_ZN8pybind116handleC2IP7_objectTnNSt9enable_ifIXsr6detail25is_pyobj_ptr_or_nullptr_tIT_EE5valueEiE4typeELi0EEES5_(ptr noundef nonnull align 8 dereferenceable(8) %0, ptr noundef %1) unnamed_addr #5 comdat align 2 {
  %3 = alloca ptr, align 8
  %4 = alloca ptr, align 8
  store ptr %0, ptr %3, align 8, !tbaa !159
  store ptr %1, ptr %4, align 8, !tbaa !153
  %5 = load ptr, ptr %3, align 8
  %6 = getelementptr inbounds nuw %"class.pybind11::handle", ptr %5, i32 0, i32 0
  %7 = load ptr, ptr %4, align 8, !tbaa !153
  store ptr %7, ptr %6, align 8, !tbaa !158
  ret void
}

; Function Attrs: mustprogress nounwind uwtable
define linkonce_odr hidden noundef nonnull align 8 dereferenceable(8) ptr @_ZNSt11_Tuple_implILm0EJN8pybind116detail11type_casterIdvEEEE7_M_headERS4_(ptr noundef nonnull align 8 dereferenceable(8) %0) #5 comdat align 2 {
  %2 = alloca ptr, align 8
  store ptr %0, ptr %2, align 8, !tbaa !2556
  %3 = load ptr, ptr %2, align 8, !tbaa !2556
  %4 = call noundef nonnull align 8 dereferenceable(8) ptr @_ZNSt10_Head_baseILm0EN8pybind116detail11type_casterIdvEELb0EE7_M_headERS4_(ptr noundef nonnull align 8 dereferenceable(8) %3) #24
  ret ptr %4
}

; Function Attrs: mustprogress uwtable
define linkonce_odr hidden void @_ZNO8pybind116object4castINS_4int_EEET_v(ptr dead_on_unwind noalias writable sret(%"class.pybind11::int_") align 8 %0, ptr noundef nonnull align 8 dereferenceable(8) %1) #4 comdat align 2 {
  %3 = alloca ptr, align 8
  %4 = alloca ptr, align 8
  store ptr %0, ptr %3, align 8
  store ptr %1, ptr %4, align 8, !tbaa !156
  %5 = load ptr, ptr %4, align 8
  call void @_ZN8pybind114castINS_4int_EEENSt9enable_ifIXsr6detail11is_pyobjectIT_EE5valueES3_E4typeEONS_6objectE(ptr dead_on_unwind writable sret(%"class.pybind11::int_") align 8 %0, ptr noundef nonnull align 8 dereferenceable(8) %5)
  ret void
}

; Function Attrs: mustprogress uwtable
define linkonce_odr hidden void @_ZN8pybind116float_C2Ed(ptr noundef nonnull align 8 dereferenceable(8) %0, double noundef %1) unnamed_addr #4 comdat align 2 personality ptr @__gxx_personality_v0 {
  %3 = alloca ptr, align 8
  %4 = alloca double, align 8
  %5 = alloca %"class.pybind11::handle", align 8
  %6 = alloca ptr, align 8
  %7 = alloca i32, align 4
  store ptr %0, ptr %3, align 8, !tbaa !2566
  store double %1, ptr %4, align 8, !tbaa !2562
  %8 = load ptr, ptr %3, align 8
  %9 = load double, ptr %4, align 8, !tbaa !2562
  %10 = call ptr @PyFloat_FromDouble(double noundef %9)
  call void @_ZN8pybind116handleC2IP7_objectTnNSt9enable_ifIXsr6detail25is_pyobj_ptr_or_nullptr_tIT_EE5valueEiE4typeELi0EEES5_(ptr noundef nonnull align 8 dereferenceable(8) %5, ptr noundef %10)
  %11 = getelementptr inbounds nuw %"class.pybind11::handle", ptr %5, i32 0, i32 0
  %12 = load ptr, ptr %11, align 8
  call void @_ZN8pybind116objectC2ENS_6handleENS0_8stolen_tE(ptr noundef nonnull align 8 dereferenceable(8) %8, ptr %12)
  %13 = getelementptr inbounds nuw %"class.pybind11::handle", ptr %8, i32 0, i32 0
  %14 = load ptr, ptr %13, align 8, !tbaa !158
  %15 = icmp ne ptr %14, null
  br i1 %15, label %22, label %16

16:                                               ; preds = %2
  invoke void @_ZN8pybind1113pybind11_failEPKc(ptr noundef @.str.207) #31
          to label %17 unwind label %18

17:                                               ; preds = %16
  unreachable

18:                                               ; preds = %16
  %19 = landingpad { ptr, i32 }
          cleanup
  %20 = extractvalue { ptr, i32 } %19, 0
  store ptr %20, ptr %6, align 8
  %21 = extractvalue { ptr, i32 } %19, 1
  store i32 %21, ptr %7, align 4
  call void @_ZN8pybind116objectD2Ev(ptr noundef nonnull align 8 dereferenceable(8) %8) #24
  br label %23

22:                                               ; preds = %2
  ret void

23:                                               ; preds = %18
  %24 = load ptr, ptr %6, align 8
  %25 = load i32, ptr %7, align 4
  %26 = insertvalue { ptr, i32 } poison, ptr %24, 0
  %27 = insertvalue { ptr, i32 } %26, i32 %25, 1
  resume { ptr, i32 } %27
}

; Function Attrs: mustprogress nounwind uwtable
define linkonce_odr hidden noundef nonnull align 8 dereferenceable(8) ptr @_ZNO8pybind116detail11type_casterIdvEcvOdEv(ptr noundef nonnull align 8 dereferenceable(8) %0) #5 comdat align 2 {
  %2 = alloca ptr, align 8
  store ptr %0, ptr %2, align 8, !tbaa !2560
  %3 = load ptr, ptr %2, align 8
  %4 = getelementptr inbounds nuw %"struct.pybind11::detail::type_caster.908", ptr %3, i32 0, i32 0
  ret ptr %4
}

; Function Attrs: mustprogress nounwind uwtable
define linkonce_odr hidden noundef nonnull align 8 dereferenceable(8) ptr @_ZSt12__get_helperILm0EN8pybind116detail11type_casterIdvEEJEERT0_RSt11_Tuple_implIXT_EJS4_DpT1_EE(ptr noundef nonnull align 8 dereferenceable(8) %0) #5 comdat {
  %2 = alloca ptr, align 8
  store ptr %0, ptr %2, align 8, !tbaa !2556
  %3 = load ptr, ptr %2, align 8, !tbaa !2556
  %4 = call noundef nonnull align 8 dereferenceable(8) ptr @_ZNSt11_Tuple_implILm0EJN8pybind116detail11type_casterIdvEEEE7_M_headERS4_(ptr noundef nonnull align 8 dereferenceable(8) %3) #24
  ret ptr %4
}

; Function Attrs: inlinehint mustprogress uwtable
define internal void @"_ZZ33test_submodule_copy_move_policiesRN8pybind117module_EENK4$_17clEd"(ptr dead_on_unwind noalias writable sret(%"class.pybind11::int_") align 8 %0, ptr noundef nonnull align 1 dereferenceable(1) %1, double noundef %2) #10 align 2 personality ptr @__gxx_personality_v0 {
  %4 = alloca ptr, align 8
  %5 = alloca ptr, align 8
  %6 = alloca double, align 8
  %7 = alloca %"class.pybind11::float_", align 8
  %8 = alloca ptr, align 8
  %9 = alloca i32, align 4
  store ptr %0, ptr %4, align 8
  store ptr %1, ptr %5, align 8, !tbaa !84
  store double %2, ptr %6, align 8, !tbaa !2562
  call void @llvm.lifetime.start.p0(i64 8, ptr %7) #24
  %10 = load double, ptr %6, align 8, !tbaa !2562
  call void @_ZN8pybind116float_C2Ed(ptr noundef nonnull align 8 dereferenceable(8) %7, double noundef %10)
  invoke void @_ZNO8pybind116object4castINS_4int_EEET_v(ptr dead_on_unwind writable sret(%"class.pybind11::int_") align 8 %0, ptr noundef nonnull align 8 dereferenceable(8) %7)
          to label %11 unwind label %12

11:                                               ; preds = %3
  call void @_ZN8pybind116objectD2Ev(ptr noundef nonnull align 8 dereferenceable(8) %7) #24
  call void @llvm.lifetime.end.p0(i64 8, ptr %7) #24
  ret void

12:                                               ; preds = %3
  %13 = landingpad { ptr, i32 }
          cleanup
  %14 = extractvalue { ptr, i32 } %13, 0
  store ptr %14, ptr %8, align 8
  %15 = extractvalue { ptr, i32 } %13, 1
  store i32 %15, ptr %9, align 4
  call void @_ZN8pybind116objectD2Ev(ptr noundef nonnull align 8 dereferenceable(8) %7) #24
  call void @llvm.lifetime.end.p0(i64 8, ptr %7) #24
  br label %16

16:                                               ; preds = %12
  %17 = load ptr, ptr %8, align 8
  %18 = load i32, ptr %9, align 4
  %19 = insertvalue { ptr, i32 } poison, ptr %17, 0
  %20 = insertvalue { ptr, i32 } %19, i32 %18, 1
  resume { ptr, i32 } %20
}

; Function Attrs: mustprogress uwtable
define linkonce_odr hidden noundef nonnull align 8 dereferenceable(8) ptr @_ZN8pybind116detail7cast_opIdEENS0_11type_casterINS0_14intrinsic_typeIT_E4typeEvE12cast_op_typeINSt20add_rvalue_referenceIS4_E4typeEEEOS7_(ptr noundef nonnull align 8 dereferenceable(8) %0) #4 comdat {
  %2 = alloca ptr, align 8
  store ptr %0, ptr %2, align 8, !tbaa !2560
  %3 = load ptr, ptr %2, align 8, !tbaa !2560
  %4 = call noundef nonnull align 8 dereferenceable(8) ptr @_ZNO8pybind116detail11type_casterIdvEcvOdEv(ptr noundef nonnull align 8 dereferenceable(8) %3)
  ret ptr %4
}

; Function Attrs: mustprogress nounwind uwtable
define linkonce_odr hidden noundef nonnull align 8 dereferenceable(8) ptr @_ZSt3getILm0EJN8pybind116detail11type_casterIdvEEEERNSt13tuple_elementIXT_ESt5tupleIJDpT0_EEE4typeERS8_(ptr noundef nonnull align 8 dereferenceable(8) %0) #5 comdat {
  %2 = alloca ptr, align 8
  store ptr %0, ptr %2, align 8, !tbaa !2554
  %3 = load ptr, ptr %2, align 8, !tbaa !2554
  %4 = call noundef nonnull align 8 dereferenceable(8) ptr @_ZSt12__get_helperILm0EN8pybind116detail11type_casterIdvEEJEERT0_RSt11_Tuple_implIXT_EJS4_DpT1_EE(ptr noundef nonnull align 8 dereferenceable(8) %3) #24
  ret ptr %4
}

; Function Attrs: mustprogress uwtable
define internal void @"_ZNO8pybind116detail15argument_loaderIJdEE9call_implINS_4int_ERZ33test_submodule_copy_move_policiesRNS_7module_EE4$_17JLm0EENS0_9void_typeEEET_OT0_St16integer_sequenceImJXspT1_EEEOT2_"(ptr dead_on_unwind noalias writable sret(%"class.pybind11::int_") align 8 %0, ptr noundef nonnull align 8 dereferenceable(8) %1, ptr noundef nonnull align 1 dereferenceable(1) %2, ptr noundef nonnull align 1 dereferenceable(1) %3) #4 align 2 {
  %5 = alloca ptr, align 8
  %6 = alloca ptr, align 8
  %7 = alloca ptr, align 8
  %8 = alloca ptr, align 8
  store ptr %0, ptr %5, align 8
  store ptr %1, ptr %6, align 8, !tbaa !2552
  store ptr %2, ptr %7, align 8, !tbaa !84
  store ptr %3, ptr %8, align 8, !tbaa !928
  %9 = load ptr, ptr %6, align 8
  %10 = load ptr, ptr %7, align 8, !tbaa !84
  %11 = getelementptr inbounds nuw %"class.pybind11::detail::argument_loader.904", ptr %9, i32 0, i32 0
  %12 = call noundef nonnull align 8 dereferenceable(8) ptr @_ZSt3getILm0EJN8pybind116detail11type_casterIdvEEEERNSt13tuple_elementIXT_ESt5tupleIJDpT0_EEE4typeERS8_(ptr noundef nonnull align 8 dereferenceable(8) %11) #24
  %13 = call noundef nonnull align 8 dereferenceable(8) ptr @_ZN8pybind116detail7cast_opIdEENS0_11type_casterINS0_14intrinsic_typeIT_E4typeEvE12cast_op_typeINSt20add_rvalue_referenceIS4_E4typeEEEOS7_(ptr noundef nonnull align 8 dereferenceable(8) %12)
  %14 = load double, ptr %13, align 8, !tbaa !2562
  call void @"_ZZ33test_submodule_copy_move_policiesRN8pybind117module_EENK4$_17clEd"(ptr dead_on_unwind writable sret(%"class.pybind11::int_") align 8 %0, ptr noundef nonnull align 1 dereferenceable(1) %10, double noundef %14)
  ret void
}

; Function Attrs: mustprogress uwtable
define internal void @"_ZNO8pybind116detail15argument_loaderIJdEE4callINS_4int_ENS0_9void_typeERZ33test_submodule_copy_move_policiesRNS_7module_EE4$_17EENSt9enable_ifIXntsr3std7is_voidIT_EE5valueESB_E4typeEOT1_"(ptr dead_on_unwind noalias writable sret(%"class.pybind11::int_") align 8 %0, ptr noundef nonnull align 8 dereferenceable(8) %1, ptr noundef nonnull align 1 dereferenceable(1) %2) #4 align 2 {
  %4 = alloca ptr, align 8
  %5 = alloca ptr, align 8
  %6 = alloca ptr, align 8
  %7 = alloca %"struct.pybind11::detail::void_type", align 1
  store ptr %0, ptr %4, align 8
  store ptr %1, ptr %5, align 8, !tbaa !2552
  store ptr %2, ptr %6, align 8, !tbaa !84
  %8 = load ptr, ptr %5, align 8
  %9 = load ptr, ptr %6, align 8, !tbaa !84
  call void @llvm.lifetime.start.p0(i64 1, ptr %7) #24
  call void @"_ZNO8pybind116detail15argument_loaderIJdEE9call_implINS_4int_ERZ33test_submodule_copy_move_policiesRNS_7module_EE4$_17JLm0EENS0_9void_typeEEET_OT0_St16integer_sequenceImJXspT1_EEEOT2_"(ptr dead_on_unwind writable sret(%"class.pybind11::int_") align 8 %0, ptr noundef nonnull align 8 dereferenceable(8) %8, ptr noundef nonnull align 1 dereferenceable(1) %9, ptr noundef nonnull align 1 dereferenceable(1) %7)
  call void @llvm.lifetime.end.p0(i64 1, ptr %7) #24
  ret void
}