; Function Attrs: mustprogress uwtable
define internal fastcc void @"_ZNO8pybind116detail15argument_loaderIJdEE4callINS_4int_ENS0_9void_typeERZ33test_submodule_copy_move_policiesRNS_7module_EE4$_17EENSt9enable_ifIXntsr3std7is_voidIT_EE5valueESB_E4typeEOT1_"(ptr dead_on_unwind noalias nonnull writable align 8 %0, double %.0.val) unnamed_addr #5 align 2 personality ptr @__gxx_personality_v0 {
  %2 = alloca %"class.pybind11::float_", align 8
  call void @llvm.lifetime.start.p0(i64 8, ptr nonnull %2) #29, !noalias !2106
  %3 = tail call ptr @PyFloat_FromDouble(double noundef %.0.val), !noalias !2106
  store ptr %3, ptr %2, align 8, !noalias !2106
  %.not.i.i.i = icmp eq ptr %3, null
  br i1 %.not.i.i.i, label %4, label %_ZN8pybind116float_C2Ed.exit.i.i

4:                                                ; preds = %1
  invoke void @_ZN8pybind1113pybind11_failEPKc(ptr noundef nonnull @.str.207) #31
          to label %5 unwind label %6, !noalias !2106

5:                                                ; preds = %4
  unreachable

common.resume.i.i:                                ; preds = %16, %6
  %common.resume.op.i.i = phi { ptr, i32 } [ %7, %6 ], [ %17, %16 ]
  resume { ptr, i32 } %common.resume.op.i.i

6:                                                ; preds = %4
  %7 = landingpad { ptr, i32 }
          cleanup
  call void @_ZN8pybind116objectD2Ev(ptr noundef nonnull align 8 dereferenceable(8) %2) #29, !noalias !2106
  br label %common.resume.i.i

_ZN8pybind116float_C2Ed.exit.i.i:                 ; preds = %1
  invoke void @_ZN8pybind114int_C2EONS_6objectE(ptr noundef nonnull align 8 dereferenceable(8) %0, ptr noundef nonnull align 8 dereferenceable(8) %2)
          to label %_ZNO8pybind116object4castINS_4int_EEET_v.exit.i.i unwind label %16

_ZNO8pybind116object4castINS_4int_EEET_v.exit.i.i: ; preds = %_ZN8pybind116float_C2Ed.exit.i.i
  %8 = load ptr, ptr %2, align 8, !tbaa !83, !noalias !2106
  %.not.i.i.i.i.i = icmp eq ptr %8, null
  br i1 %.not.i.i.i.i.i, label %"_ZNO8pybind116detail15argument_loaderIJdEE9call_implINS_4int_ERZ33test_submodule_copy_move_policiesRNS_7module_EE4$_17JLm0EENS0_9void_typeEEET_OT0_St16integer_sequenceImJXspT1_EEEOT2_.exit", label %9

9:                                                ; preds = %_ZNO8pybind116object4castINS_4int_EEET_v.exit.i.i
  %10 = load i64, ptr %8, align 8, !tbaa !84
  %11 = add nsw i64 %10, -1
  store i64 %11, ptr %8, align 8, !tbaa !84
  %.not.i.i.i.i.i.i = icmp eq i64 %11, 0
  br i1 %.not.i.i.i.i.i.i, label %12, label %"_ZNO8pybind116detail15argument_loaderIJdEE9call_implINS_4int_ERZ33test_submodule_copy_move_policiesRNS_7module_EE4$_17JLm0EENS0_9void_typeEEET_OT0_St16integer_sequenceImJXspT1_EEEOT2_.exit"

12:                                               ; preds = %9
  invoke void @_Py_Dealloc(ptr noundef nonnull %8)
          to label %"_ZNO8pybind116detail15argument_loaderIJdEE9call_implINS_4int_ERZ33test_submodule_copy_move_policiesRNS_7module_EE4$_17JLm0EENS0_9void_typeEEET_OT0_St16integer_sequenceImJXspT1_EEEOT2_.exit" unwind label %13

13:                                               ; preds = %12
  %14 = landingpad { ptr, i32 }
          catch ptr null
  %15 = extractvalue { ptr, i32 } %14, 0
  call void @__clang_call_terminate(ptr %15) #30
  unreachable

16:                                               ; preds = %_ZN8pybind116float_C2Ed.exit.i.i
  %17 = landingpad { ptr, i32 }
          cleanup
  call void @_ZN8pybind116objectD2Ev(ptr noundef nonnull align 8 dereferenceable(8) %2) #29
  call void @llvm.lifetime.end.p0(i64 8, ptr nonnull %2) #29, !noalias !2106
  br label %common.resume.i.i

"_ZNO8pybind116detail15argument_loaderIJdEE9call_implINS_4int_ERZ33test_submodule_copy_move_policiesRNS_7module_EE4$_17JLm0EENS0_9void_typeEEET_OT0_St16integer_sequenceImJXspT1_EEEOT2_.exit": ; preds = %_ZNO8pybind116object4castINS_4int_EEET_v.exit.i.i, %9, %12
  call void @llvm.lifetime.end.p0(i64 8, ptr nonnull %2) #29, !noalias !2106
  ret void
}